; ModuleID = 'source-C-CXX/11/721.c'
source_filename = "source-C-CXX/11/721.c"
target datalayout = "e-m:e-p270:32:32-p271:32:32-p272:64:64-i64:64-f80:128-n8:16:32:64-S128"
target triple = "x86_64-pc-linux-gnu"

@.str = private unnamed_addr constant [3 x i8] c"%d\00", align 1
@.str.1 = private unnamed_addr constant [4 x i8] c"%d\0A\00", align 1

; Function Attrs: nofree nounwind sspstrong uwtable
define dso_local void @main() local_unnamed_addr #0 {
  %1 = alloca [100 x [100 x i32]], align 16
  %2 = alloca [100 x i32], align 16
  %3 = bitcast [100 x [100 x i32]]* %1 to i8*
  call void @llvm.lifetime.start.p0i8(i64 40000, i8* nonnull %3) #3
  %4 = bitcast [100 x i32]* %2 to i8*
  call void @llvm.lifetime.start.p0i8(i64 400, i8* nonnull %4) #3
  %5 = getelementptr inbounds [100 x [100 x i32]], [100 x [100 x i32]]* %1, i64 0, i64 1, i64 1
  %6 = call i32 (i8*, ...) @__isoc99_scanf(i8* getelementptr inbounds ([3 x i8], [3 x i8]* @.str, i64 0, i64 0), i32* nonnull %5)
  %7 = load i32, i32* %5, align 4, !tbaa !5
  %8 = icmp eq i32 %7, -1
  br i1 %8, label %57, label %9

9:                                                ; preds = %0, %43
  %10 = phi i64 [ %45, %43 ], [ 1, %0 ]
  %11 = phi i32 [ %44, %43 ], [ 0, %0 ]
  %12 = getelementptr inbounds [100 x i32], [100 x i32]* %2, i64 0, i64 %10
  br label %16

13:                                               ; preds = %43
  %14 = add nuw i32 %11, 2
  %15 = zext i32 %14 to i64
  br label %50

16:                                               ; preds = %9, %40
  %17 = phi i64 [ 2, %9 ], [ %41, %40 ]
  %18 = getelementptr inbounds [100 x [100 x i32]], [100 x [100 x i32]]* %1, i64 0, i64 %10, i64 %17
  %19 = call i32 (i8*, ...) @__isoc99_scanf(i8* getelementptr inbounds ([3 x i8], [3 x i8]* @.str, i64 0, i64 0), i32* nonnull %18)
  %20 = load i32, i32* %18, align 4, !tbaa !5
  %21 = icmp eq i32 %20, 0
  br i1 %21, label %43, label %22

22:                                               ; preds = %16
  %23 = shl nsw i32 %20, 1
  br label %24

24:                                               ; preds = %37, %22
  %25 = phi i32 [ %20, %22 ], [ %39, %37 ]
  %26 = phi i64 [ %17, %22 ], [ %36, %37 ]
  %27 = shl nsw i32 %25, 1
  %28 = icmp eq i32 %20, %27
  %29 = icmp eq i32 %23, %25
  %30 = select i1 %28, i1 true, i1 %29
  br i1 %30, label %31, label %34

31:                                               ; preds = %24
  %32 = load i32, i32* %12, align 4, !tbaa !5
  %33 = add nsw i32 %32, 1
  store i32 %33, i32* %12, align 4, !tbaa !5
  br label %34

34:                                               ; preds = %24, %31
  %35 = icmp sgt i64 %26, 1
  %36 = add nsw i64 %26, -1
  br i1 %35, label %37, label %40, !llvm.loop !9

37:                                               ; preds = %34
  %38 = getelementptr inbounds [100 x [100 x i32]], [100 x [100 x i32]]* %1, i64 0, i64 %10, i64 %36
  %39 = load i32, i32* %38, align 4, !tbaa !5
  br label %24

40:                                               ; preds = %34
  %41 = add nuw nsw i64 %17, 1
  %42 = icmp eq i64 %41, 100
  br i1 %42, label %43, label %16, !llvm.loop !11

43:                                               ; preds = %16, %40
  %44 = add nuw nsw i32 %11, 1
  %45 = add nuw i64 %10, 1
  %46 = getelementptr inbounds [100 x [100 x i32]], [100 x [100 x i32]]* %1, i64 0, i64 %45, i64 1
  %47 = call i32 (i8*, ...) @__isoc99_scanf(i8* getelementptr inbounds ([3 x i8], [3 x i8]* @.str, i64 0, i64 0), i32* nonnull %46)
  %48 = load i32, i32* %46, align 4, !tbaa !5
  %49 = icmp eq i32 %48, -1
  br i1 %49, label %13, label %9

50:                                               ; preds = %13, %50
  %51 = phi i64 [ 1, %13 ], [ %55, %50 ]
  %52 = getelementptr inbounds [100 x i32], [100 x i32]* %2, i64 0, i64 %51
  %53 = load i32, i32* %52, align 4, !tbaa !5
  %54 = call i32 (i8*, ...) @printf(i8* nonnull dereferenceable(1) getelementptr inbounds ([4 x i8], [4 x i8]* @.str.1, i64 0, i64 0), i32 %53)
  %55 = add nuw nsw i64 %51, 1
  %56 = icmp eq i64 %55, %15
  br i1 %56, label %57, label %50, !llvm.loop !12

57:                                               ; preds = %50, %0
  call void @llvm.lifetime.end.p0i8(i64 400, i8* nonnull %4) #3
  call void @llvm.lifetime.end.p0i8(i64 40000, i8* nonnull %3) #3
  ret void
}

; Function Attrs: argmemonly mustprogress nofree nosync nounwind willreturn
declare void @llvm.lifetime.start.p0i8(i64 immarg, i8* nocapture) #1

; Function Attrs: nofree nounwind
declare noundef i32 @__isoc99_scanf(i8* nocapture noundef readonly, ...) local_unnamed_addr #2

; Function Attrs: nofree nounwind
declare noundef i32 @printf(i8* nocapture noundef readonly, ...) local_unnamed_addr #2

; Function Attrs: argmemonly mustprogress nofree nosync nounwind willreturn
declare void @llvm.lifetime.end.p0i8(i64 immarg, i8* nocapture) #1


!llvm.module.flags = !{!0, !1, !2, !3}
!llvm.ident = !{!4}

!0 = !{i32 1, !"wchar_size", i32 4}
!1 = !{i32 7, !"PIC Level", i32 2}
!2 = !{i32 7, !"PIE Level", i32 2}
!3 = !{i32 7, !"uwtable", i32 1}
!4 = !{!"clang version 13.0.0"}
!5 = !{!6, !6, i64 0}
!6 = !{!"int", !7, i64 0}
!7 = !{!"omnipotent char", !8, i64 0}
!8 = !{!"Simple C/C++ TBAA"}
!9 = distinct !{!9, !10}
!10 = !{!"llvm.loop.mustprogress"}
!11 = distinct !{!11, !10}
!12 = distinct !{!12, !10}
